target datalayout = "e-m:e-p270:32:32-p271:32:32-p272:64:64-i64:64-i128:128-f80:128-n8:16:32:64-S128"
target triple = "x86_64-pc-linux-gnu"

%struct.pmix_class_t = type { ptr, ptr, ptr, ptr, i32, i32, ptr, ptr, i64 }
%struct.pmix_pointer_array_t = type { %struct.pmix_object_t, i32, i32, i32, i32, i32, ptr, ptr }
%struct.pmix_object_t = type { %union.pthread_mutex_t, ptr, i32, %struct.pmix_tma }
%union.pthread_mutex_t = type { %struct.__pthread_mutex_s }
%struct.__pthread_mutex_s = type { i32, i32, i32, i32, i32, i16, i16, %struct.__pthread_internal_list }
%struct.__pthread_internal_list = type { ptr, ptr }
%struct.pmix_tma = type { ptr, ptr, ptr, ptr, ptr, ptr, ptr, ptr }
%struct.pmix_hash_table_t = type { %struct.pmix_object_t, ptr, ptr, i64, i64, i64, i32, i32, i32, i32, ptr }

@pmix_mca_base_var_group_initialized = internal global i8 0, align 1
@pmix_mca_base_var_groups = internal global %struct.pmix_pointer_array_t zeroinitializer, align 8
@pmix_mca_base_var_group_index_hash = internal global %struct.pmix_hash_table_t zeroinitializer, align 8
@pmix_mca_base_var_group_count = internal global i32 0, align 4
@.str.1 = private unnamed_addr constant [21 x i8] c"pthread_mutex_lock()\00", align 1

; Function Attrs: inlinehint nounwind uwtable
define internal void @pmix_tma_free(ptr noundef %0, ptr noundef %1) #3 {
  %3 = alloca ptr, align 8
  %4 = alloca ptr, align 8
  store ptr %0, ptr %3, align 8, !tbaa !34
  store ptr %1, ptr %4, align 8, !tbaa !45
  %5 = load ptr, ptr %3, align 8, !tbaa !34
  %6 = icmp ne ptr null, %5
  br i1 %6, label %7, label %13

7:                                                ; preds = %2
  %8 = load ptr, ptr %3, align 8, !tbaa !34
  %9 = getelementptr inbounds nuw %struct.pmix_tma, ptr %8, i32 0, i32 5
  %10 = load ptr, ptr %9, align 8, !tbaa !58
  %11 = load ptr, ptr %3, align 8, !tbaa !34
  %12 = load ptr, ptr %4, align 8, !tbaa !45
  call void %10(ptr noundef %11, ptr noundef %12)
  br label %15

13:                                               ; preds = %2
  %14 = load ptr, ptr %4, align 8, !tbaa !45
  call void @free(ptr noundef %14) #14
  br label %15

15:                                               ; preds = %13, %7
  ret void
}

; Function Attrs: inlinehint nounwind uwtable
define internal void @pmix_obj_run_destructors(ptr noundef %0) #3 {
  %2 = alloca ptr, align 8
  %3 = alloca ptr, align 8
  store ptr %0, ptr %2, align 8, !tbaa !32
  call void @llvm.lifetime.start.p0(i64 8, ptr %3) #14
  %4 = load ptr, ptr %2, align 8, !tbaa !32
  %5 = getelementptr inbounds nuw %struct.pmix_object_t, ptr %4, i32 0, i32 1
  %6 = load ptr, ptr %5, align 8, !tbaa !15
  %7 = getelementptr inbounds nuw %struct.pmix_class_t, ptr %6, i32 0, i32 7
  %8 = load ptr, ptr %7, align 8, !tbaa !56
  store ptr %8, ptr %3, align 8, !tbaa !45
  br label %9

9:                                                ; preds = %13, %1
  %10 = load ptr, ptr %3, align 8, !tbaa !45
  %11 = load ptr, ptr %10, align 8, !tbaa !45
  %12 = icmp ne ptr null, %11
  br i1 %12, label %13, label %19

13:                                               ; preds = %9
  %14 = load ptr, ptr %3, align 8, !tbaa !45
  %15 = load ptr, ptr %14, align 8, !tbaa !45
  %16 = load ptr, ptr %2, align 8, !tbaa !32
  call void %15(ptr noundef %16)
  %17 = load ptr, ptr %3, align 8, !tbaa !45
  %18 = getelementptr inbounds nuw ptr, ptr %17, i32 1
  store ptr %18, ptr %3, align 8, !tbaa !45
  br label %9, !llvm.loop !57

19:                                               ; preds = %9
  call void @llvm.lifetime.end.p0(i64 8, ptr %3) #14
  ret void
}

; Function Attrs: alwaysinline nounwind uwtable
define internal i32 @pmix_obj_update(ptr noundef %0, i32 noundef %1) #4 {
  %3 = alloca ptr, align 8
  %4 = alloca i32, align 4
  %5 = alloca i32, align 4
  store ptr %0, ptr %3, align 8, !tbaa !32
  store i32 %1, ptr %4, align 4, !tbaa !8
  call void @llvm.lifetime.start.p0(i64 4, ptr %5) #14
  %6 = load ptr, ptr %3, align 8, !tbaa !32
  %7 = getelementptr inbounds nuw %struct.pmix_object_t, ptr %6, i32 0, i32 0
  %8 = call i32 @pthread_mutex_lock(ptr noundef %7) #14
  store i32 %8, ptr %5, align 4, !tbaa !8
  %9 = load i32, ptr %5, align 4, !tbaa !8
  %10 = icmp eq i32 %9, 35
  br i1 %10, label %11, label %14

11:                                               ; preds = %2
  %12 = load i32, ptr %5, align 4, !tbaa !8
  %13 = call ptr @__errno_location() #15
  store i32 %12, ptr %13, align 4, !tbaa !8
  call void @perror(ptr noundef @.str.1)
  call void @abort() #16
  unreachable

14:                                               ; preds = %2
  %15 = load i32, ptr %4, align 4, !tbaa !8
  %16 = load ptr, ptr %3, align 8, !tbaa !32
  %17 = getelementptr inbounds nuw %struct.pmix_object_t, ptr %16, i32 0, i32 2
  %18 = load i32, ptr %17, align 8, !tbaa !18
  %19 = add nsw i32 %18, %15
  store i32 %19, ptr %17, align 8, !tbaa !18
  store i32 %19, ptr %5, align 4, !tbaa !8
  %20 = load ptr, ptr %3, align 8, !tbaa !32
  %21 = getelementptr inbounds nuw %struct.pmix_object_t, ptr %20, i32 0, i32 0
  %22 = call i32 @pthread_mutex_unlock(ptr noundef %21) #14
  %23 = load i32, ptr %5, align 4, !tbaa !8
  call void @llvm.lifetime.end.p0(i64 4, ptr %5) #14
  ret i32 %23
}

; Function Attrs: inlinehint nounwind uwtable
define internal ptr @pmix_pointer_array_get_item(ptr noundef %0, i32 noundef %1) #3 {
  %3 = alloca ptr, align 8
  %4 = alloca ptr, align 8
  %5 = alloca i32, align 4
  %6 = alloca ptr, align 8
  %7 = alloca i32, align 4
  store ptr %0, ptr %4, align 8, !tbaa !50
  store i32 %1, ptr %5, align 4, !tbaa !8
  call void @llvm.lifetime.start.p0(i64 8, ptr %6) #14
  %8 = load i32, ptr %5, align 4, !tbaa !8
  %9 = icmp sgt i32 0, %8
  br i1 %9, label %16, label %10

10:                                               ; preds = %2
  %11 = load ptr, ptr %4, align 8, !tbaa !50
  %12 = getelementptr inbounds nuw %struct.pmix_pointer_array_t, ptr %11, i32 0, i32 3
  %13 = load i32, ptr %12, align 8, !tbaa !52
  %14 = load i32, ptr %5, align 4, !tbaa !8
  %15 = icmp sle i32 %13, %14
  br label %16

16:                                               ; preds = %10, %2
  %17 = phi i1 [ true, %2 ], [ %15, %10 ]
  %18 = xor i1 %17, true
  %19 = xor i1 %18, true
  %20 = zext i1 %19 to i32
  %21 = sext i32 %20 to i64
  %22 = call i64 @llvm.expect.i64(i64 %21, i64 0)
  %23 = icmp ne i64 %22, 0
  br i1 %23, label %24, label %25

24:                                               ; preds = %16
  store ptr null, ptr %3, align 8
  store i32 1, ptr %7, align 4
  br label %34

25:                                               ; preds = %16
  %26 = load ptr, ptr %4, align 8, !tbaa !50
  %27 = getelementptr inbounds nuw %struct.pmix_pointer_array_t, ptr %26, i32 0, i32 7
  %28 = load ptr, ptr %27, align 8, !tbaa !55
  %29 = load i32, ptr %5, align 4, !tbaa !8
  %30 = sext i32 %29 to i64
  %31 = getelementptr inbounds ptr, ptr %28, i64 %30
  %32 = load ptr, ptr %31, align 8, !tbaa !45
  store ptr %32, ptr %6, align 8, !tbaa !45
  %33 = load ptr, ptr %6, align 8, !tbaa !45
  store ptr %33, ptr %3, align 8
  store i32 1, ptr %7, align 4
  br label %34

34:                                               ; preds = %25, %24
  call void @llvm.lifetime.end.p0(i64 8, ptr %6) #14
  %35 = load ptr, ptr %3, align 8
  ret ptr %35
}

; Function Attrs: inlinehint nounwind uwtable
define internal i32 @pmix_pointer_array_get_size(ptr noundef %0) #3 {
  %2 = alloca ptr, align 8
  store ptr %0, ptr %2, align 8, !tbaa !50
  %3 = load ptr, ptr %2, align 8, !tbaa !50
  %4 = getelementptr inbounds nuw %struct.pmix_pointer_array_t, ptr %3, i32 0, i32 3
  %5 = load i32, ptr %4, align 8, !tbaa !52
  ret i32 %5
}

; Function Attrs: nounwind uwtable
define i32 @pmix_mca_base_var_group_finalize() #0 {
  %1 = alloca ptr, align 8
  %2 = alloca i32, align 4
  %3 = alloca i32, align 4
  %4 = alloca ptr, align 8
  call void @llvm.lifetime.start.p0(i64 8, ptr %1) #14
  call void @llvm.lifetime.start.p0(i64 4, ptr %2) #14
  call void @llvm.lifetime.start.p0(i64 4, ptr %3) #14
  %5 = load i8, ptr @pmix_mca_base_var_group_initialized, align 1, !tbaa !29, !range !30, !noundef !31
  %6 = trunc i8 %5 to i1
  br i1 %6, label %7, label %52

7:                                                ; preds = %0
  %8 = call i32 @pmix_pointer_array_get_size(ptr noundef @pmix_mca_base_var_groups)
  store i32 %8, ptr %2, align 4, !tbaa !8
  store i32 0, ptr %3, align 4, !tbaa !8
  br label %9

9:                                                ; preds = %42, %7
  %10 = load i32, ptr %3, align 4, !tbaa !8
  %11 = load i32, ptr %2, align 4, !tbaa !8
  %12 = icmp slt i32 %10, %11
  br i1 %12, label %13, label %45

13:                                               ; preds = %9
  %14 = load i32, ptr %3, align 4, !tbaa !8
  %15 = call ptr @pmix_pointer_array_get_item(ptr noundef @pmix_mca_base_var_groups, i32 noundef %14)
  store ptr %15, ptr %1, align 8, !tbaa !32
  %16 = load ptr, ptr %1, align 8, !tbaa !32
  %17 = icmp ne ptr null, %16
  br i1 %17, label %18, label %41

18:                                               ; preds = %13
  br label %19

19:                                               ; preds = %18
  call void @llvm.lifetime.start.p0(i64 8, ptr %4) #14
  %20 = load ptr, ptr %1, align 8, !tbaa !32
  store ptr %20, ptr %4, align 8, !tbaa !32
  %21 = load ptr, ptr %4, align 8, !tbaa !32
  %22 = call i32 @pmix_obj_update(ptr noundef %21, i32 noundef -1)
  %23 = icmp eq i32 0, %22
  br i1 %23, label %24, label %38

24:                                               ; preds = %19
  %25 = load ptr, ptr %4, align 8, !tbaa !32
  call void @pmix_obj_run_destructors(ptr noundef %25)
  %26 = load ptr, ptr %4, align 8, !tbaa !32
  %27 = getelementptr inbounds nuw %struct.pmix_object_t, ptr %26, i32 0, i32 3
  %28 = getelementptr inbounds nuw %struct.pmix_tma, ptr %27, i32 0, i32 5
  %29 = load ptr, ptr %28, align 8, !tbaa !41
  %30 = icmp ne ptr null, %29
  br i1 %30, label %31, label %35

31:                                               ; preds = %24
  %32 = load ptr, ptr %4, align 8, !tbaa !32
  %33 = getelementptr inbounds nuw %struct.pmix_object_t, ptr %32, i32 0, i32 3
  %34 = load ptr, ptr %1, align 8, !tbaa !32
  call void @pmix_tma_free(ptr noundef %33, ptr noundef %34)
  br label %37

35:                                               ; preds = %24
  %36 = load ptr, ptr %1, align 8, !tbaa !32
  call void @free(ptr noundef %36) #14
  br label %37

37:                                               ; preds = %35, %31
  store ptr null, ptr %1, align 8, !tbaa !32
  br label %38

38:                                               ; preds = %37, %19
  call void @llvm.lifetime.end.p0(i64 8, ptr %4) #14
  br label %39

39:                                               ; preds = %38
  br label %40

40:                                               ; preds = %39
  br label %41

41:                                               ; preds = %40, %13
  br label %42

42:                                               ; preds = %41
  %43 = load i32, ptr %3, align 4, !tbaa !8
  %44 = add nsw i32 %43, 1
  store i32 %44, ptr %3, align 4, !tbaa !8
  br label %9, !llvm.loop !49

45:                                               ; preds = %9
  br label %46

46:                                               ; preds = %45
  call void @pmix_obj_run_destructors(ptr noundef @pmix_mca_base_var_groups)
  br label %47

47:                                               ; preds = %46
  br label %48

48:                                               ; preds = %47
  br label %49

49:                                               ; preds = %48
  call void @pmix_obj_run_destructors(ptr noundef @pmix_mca_base_var_group_index_hash)
  br label %50

50:                                               ; preds = %49
  br label %51

51:                                               ; preds = %50
  store i32 0, ptr @pmix_mca_base_var_group_count, align 4, !tbaa !8
  store i8 0, ptr @pmix_mca_base_var_group_initialized, align 1, !tbaa !29
  br label %52

52:                                               ; preds = %51, %0
  call void @llvm.lifetime.end.p0(i64 4, ptr %3) #14
  call void @llvm.lifetime.end.p0(i64 4, ptr %2) #14
  call void @llvm.lifetime.end.p0(i64 8, ptr %1) #14
  ret i32 0
}