; Function Attrs: nounwind uwtable
define noundef i32 @pmix_mca_base_var_group_finalize() local_unnamed_addr #0 {
  %.b12 = load i1, ptr @pmix_mca_base_var_group_initialized, align 1
  br i1 %.b12, label %1, label %47

1:                                                ; preds = %0
  %2 = load i32, ptr getelementptr inbounds nuw (i8, ptr @pmix_mca_base_var_groups, i64 128), align 8, !tbaa !37
  %3 = icmp sgt i32 %2, 0
  br i1 %3, label %.lr.ph.preheader, label %._crit_edge

.lr.ph.preheader:                                 ; preds = %1
  %wide.trip.count = zext nneg i32 %2 to i64
  br label %.lr.ph

.lr.ph:                                           ; preds = %.lr.ph.preheader, %pmix_pointer_array_get_item.exit.thread
  %indvars.iv = phi i64 [ 0, %.lr.ph.preheader ], [ %indvars.iv.next, %pmix_pointer_array_get_item.exit.thread ]
  %4 = load i32, ptr getelementptr inbounds nuw (i8, ptr @pmix_mca_base_var_groups, i64 128), align 8
  %5 = sext i32 %4 to i64
  %.not27 = icmp slt i64 %indvars.iv, %5
  br i1 %.not27, label %pmix_pointer_array_get_item.exit, label %pmix_pointer_array_get_item.exit.thread, !prof !40

pmix_pointer_array_get_item.exit:                 ; preds = %.lr.ph
  %6 = load ptr, ptr getelementptr inbounds nuw (i8, ptr @pmix_mca_base_var_groups, i64 152), align 8, !tbaa !41
  %7 = getelementptr inbounds nuw ptr, ptr %6, i64 %indvars.iv
  %8 = load ptr, ptr %7, align 8, !tbaa !18
  %.not = icmp eq ptr %8, null
  br i1 %.not, label %pmix_pointer_array_get_item.exit.thread, label %9

9:                                                ; preds = %pmix_pointer_array_get_item.exit
  %10 = tail call i32 @pthread_mutex_lock(ptr noundef nonnull %8) #17
  %11 = icmp eq i32 %10, 35
  br i1 %11, label %12, label %pmix_obj_update.exit

12:                                               ; preds = %9
  %13 = tail call ptr @__errno_location() #19
  store i32 35, ptr %13, align 4, !tbaa !3
  tail call void @perror(ptr noundef nonnull @.str.1) #20
  tail call void @abort() #21
  unreachable

pmix_obj_update.exit:                             ; preds = %9
  %14 = getelementptr inbounds nuw i8, ptr %8, i64 48
  %15 = load i32, ptr %14, align 8, !tbaa !16
  %16 = add nsw i32 %15, -1
  store i32 %16, ptr %14, align 8, !tbaa !16
  %17 = tail call i32 @pthread_mutex_unlock(ptr noundef nonnull %8) #17
  %18 = icmp eq i32 %16, 0
  br i1 %18, label %19, label %pmix_pointer_array_get_item.exit.thread

19:                                               ; preds = %pmix_obj_update.exit
  %20 = getelementptr inbounds nuw i8, ptr %8, i64 40
  %21 = load ptr, ptr %20, align 8, !tbaa !13
  %22 = getelementptr inbounds nuw i8, ptr %21, i64 48
  %23 = load ptr, ptr %22, align 8, !tbaa !35
  %24 = load ptr, ptr %23, align 8, !tbaa !18
  %.not6.i = icmp eq ptr %24, null
  br i1 %.not6.i, label %pmix_obj_run_destructors.exit, label %.lr.ph.i

.lr.ph.i:                                         ; preds = %19, %.lr.ph.i
  %25 = phi ptr [ %27, %.lr.ph.i ], [ %24, %19 ]
  %.07.i = phi ptr [ %26, %.lr.ph.i ], [ %23, %19 ]
  tail call void %25(ptr noundef nonnull %8) #17
  %26 = getelementptr inbounds nuw i8, ptr %.07.i, i64 8
  %27 = load ptr, ptr %26, align 8, !tbaa !18
  %.not.i = icmp eq ptr %27, null
  br i1 %.not.i, label %pmix_obj_run_destructors.exit, label %.lr.ph.i, !llvm.loop !36

pmix_obj_run_destructors.exit:                    ; preds = %.lr.ph.i, %19
  %28 = getelementptr inbounds nuw i8, ptr %8, i64 96
  %29 = load ptr, ptr %28, align 8, !tbaa !42
  %.not13 = icmp eq ptr %29, null
  br i1 %.not13, label %32, label %30

30:                                               ; preds = %pmix_obj_run_destructors.exit
  %31 = getelementptr inbounds nuw i8, ptr %8, i64 56
  tail call void %29(ptr noundef nonnull %31, ptr noundef nonnull %8) #17
  br label %pmix_pointer_array_get_item.exit.thread

32:                                               ; preds = %pmix_obj_run_destructors.exit
  tail call void @free(ptr noundef nonnull %8) #17
  br label %pmix_pointer_array_get_item.exit.thread

pmix_pointer_array_get_item.exit.thread:          ; preds = %.lr.ph, %pmix_obj_update.exit, %32, %30, %pmix_pointer_array_get_item.exit
  %indvars.iv.next = add nuw nsw i64 %indvars.iv, 1
  %exitcond.not = icmp eq i64 %indvars.iv.next, %wide.trip.count
  br i1 %exitcond.not, label %._crit_edge, label %.lr.ph, !llvm.loop !43

._crit_edge:                                      ; preds = %pmix_pointer_array_get_item.exit.thread, %1
  %33 = load ptr, ptr getelementptr inbounds nuw (i8, ptr @pmix_mca_base_var_groups, i64 40), align 8, !tbaa !13
  %34 = getelementptr inbounds nuw i8, ptr %33, i64 48
  %35 = load ptr, ptr %34, align 8, !tbaa !35
  %36 = load ptr, ptr %35, align 8, !tbaa !18
  %.not6.i15 = icmp eq ptr %36, null
  br i1 %.not6.i15, label %pmix_obj_run_destructors.exit19, label %.lr.ph.i16

.lr.ph.i16:                                       ; preds = %._crit_edge, %.lr.ph.i16
  %37 = phi ptr [ %39, %.lr.ph.i16 ], [ %36, %._crit_edge ]
  %.07.i17 = phi ptr [ %38, %.lr.ph.i16 ], [ %35, %._crit_edge ]
  tail call void %37(ptr noundef nonnull @pmix_mca_base_var_groups) #17
  %38 = getelementptr inbounds nuw i8, ptr %.07.i17, i64 8
  %39 = load ptr, ptr %38, align 8, !tbaa !18
  %.not.i18 = icmp eq ptr %39, null
  br i1 %.not.i18, label %pmix_obj_run_destructors.exit19, label %.lr.ph.i16, !llvm.loop !36

pmix_obj_run_destructors.exit19:                  ; preds = %.lr.ph.i16, %._crit_edge
  %40 = load ptr, ptr getelementptr inbounds nuw (i8, ptr @pmix_mca_base_var_group_index_hash, i64 40), align 8, !tbaa !13
  %41 = getelementptr inbounds nuw i8, ptr %40, i64 48
  %42 = load ptr, ptr %41, align 8, !tbaa !35
  %43 = load ptr, ptr %42, align 8, !tbaa !18
  %.not6.i20 = icmp eq ptr %43, null
  br i1 %.not6.i20, label %pmix_obj_run_destructors.exit24, label %.lr.ph.i21

.lr.ph.i21:                                       ; preds = %pmix_obj_run_destructors.exit19, %.lr.ph.i21
  %44 = phi ptr [ %46, %.lr.ph.i21 ], [ %43, %pmix_obj_run_destructors.exit19 ]
  %.07.i22 = phi ptr [ %45, %.lr.ph.i21 ], [ %42, %pmix_obj_run_destructors.exit19 ]
  tail call void %44(ptr noundef nonnull @pmix_mca_base_var_group_index_hash) #17
  %45 = getelementptr inbounds nuw i8, ptr %.07.i22, i64 8
  %46 = load ptr, ptr %45, align 8, !tbaa !18
  %.not.i23 = icmp eq ptr %46, null
  br i1 %.not.i23, label %pmix_obj_run_destructors.exit24, label %.lr.ph.i21, !llvm.loop !36

pmix_obj_run_destructors.exit24:                  ; preds = %.lr.ph.i21, %pmix_obj_run_destructors.exit19
  store i32 0, ptr @pmix_mca_base_var_group_count, align 4, !tbaa !3
  store i1 false, ptr @pmix_mca_base_var_group_initialized, align 1
  br label %47

47:                                               ; preds = %pmix_obj_run_destructors.exit24, %0
  ret i32 0
}